target datalayout = "e-m:e-p270:32:32-p271:32:32-p272:64:64-i64:64-i128:128-f80:128-n8:16:32:64-S128"
target triple = "x86_64-pc-linux-gnu"

%"class.llvm::SmallVectorBase" = type { ptr, i32, i32 }
%"class.llvm::SmallPtrSetImplBase.base" = type <{ ptr, ptr, i32, i32, i32 }>
%"class.llvm::MCFixup" = type { ptr, i32, i32, %"class.llvm::SMLoc" }
%"class.llvm::SMLoc" = type { ptr }
%"class.llvm::MCValue" = type <{ ptr, ptr, i64, i32, [4 x i8] }>
%"class.llvm::MCAssembler" = type <{ ptr, %"class.std::unique_ptr", %"class.std::unique_ptr.17", %"class.std::unique_ptr.25", i8, i8, [6 x i8], %"class.llvm::SmallVector.33", %"class.llvm::SmallVector.38", %"struct.llvm::MCDwarfLineTableParams", [5 x i8], %"class.llvm::SmallPtrSet.43", i32, [4 x i8] }>
%"class.std::unique_ptr" = type { %"struct.std::__uniq_ptr_data" }
%"struct.std::__uniq_ptr_data" = type { %"class.std::__uniq_ptr_impl" }
%"class.std::__uniq_ptr_impl" = type { %"class.std::tuple" }
%"class.std::tuple" = type { %"struct.std::_Tuple_impl" }
%"struct.std::_Tuple_impl" = type { %"struct.std::_Head_base.16" }
%"struct.std::_Head_base.16" = type { ptr }
%"class.std::unique_ptr.17" = type { %"struct.std::__uniq_ptr_data.18" }
%"struct.std::__uniq_ptr_data.18" = type { %"class.std::__uniq_ptr_impl.19" }
%"class.std::__uniq_ptr_impl.19" = type { %"class.std::tuple.20" }
%"class.std::tuple.20" = type { %"struct.std::_Tuple_impl.21" }
%"struct.std::_Tuple_impl.21" = type { %"struct.std::_Head_base.24" }
%"struct.std::_Head_base.24" = type { ptr }
%"class.std::unique_ptr.25" = type { %"struct.std::__uniq_ptr_data.26" }
%"struct.std::__uniq_ptr_data.26" = type { %"class.std::__uniq_ptr_impl.27" }
%"class.std::__uniq_ptr_impl.27" = type { %"class.std::tuple.28" }
%"class.std::tuple.28" = type { %"struct.std::_Tuple_impl.29" }
%"struct.std::_Tuple_impl.29" = type { %"struct.std::_Head_base.32" }
%"struct.std::_Head_base.32" = type { ptr }
%"class.llvm::SmallVector.33" = type { %"class.llvm::SmallVectorImpl.34" }
%"class.llvm::SmallVectorImpl.34" = type { %"class.llvm::SmallVectorTemplateBase.35" }
%"class.llvm::SmallVectorTemplateBase.35" = type { %"class.llvm::SmallVectorTemplateCommon.36" }
%"class.llvm::SmallVectorTemplateCommon.36" = type { %"class.llvm::SmallVectorBase" }
%"class.llvm::SmallVector.38" = type { %"class.llvm::SmallVectorImpl.39" }
%"class.llvm::SmallVectorImpl.39" = type { %"class.llvm::SmallVectorTemplateBase.40" }
%"class.llvm::SmallVectorTemplateBase.40" = type { %"class.llvm::SmallVectorTemplateCommon.41" }
%"class.llvm::SmallVectorTemplateCommon.41" = type { %"class.llvm::SmallVectorBase" }
%"struct.llvm::MCDwarfLineTableParams" = type { i8, i8, i8 }
%"class.llvm::SmallPtrSet.43" = type { %"class.llvm::SmallPtrSetImpl.base.45", [32 x ptr] }
%"class.llvm::SmallPtrSetImpl.base.45" = type { %"class.llvm::SmallPtrSetImplBase.base" }

; Function Attrs: mustprogress nounwind uwtable
define linkonce_odr hidden noundef nonnull align 8 dereferenceable(8) ptr @_ZNSt10_Head_baseILm0EPN4llvm14MCObjectWriterELb0EE7_M_headERKS3_(ptr noundef nonnull align 8 dereferenceable(8) %0) #1 comdat align 2 {
  %2 = alloca ptr, align 8
  store ptr %0, ptr %2, align 8
  %3 = load ptr, ptr %2, align 8
  %4 = getelementptr inbounds nuw %"struct.std::_Head_base.32", ptr %3, i32 0, i32 0
  ret ptr %4
}

; Function Attrs: mustprogress nounwind uwtable
define linkonce_odr hidden noundef nonnull align 8 dereferenceable(8) ptr @_ZNSt11_Tuple_implILm0EJPN4llvm14MCObjectWriterESt14default_deleteIS1_EEE7_M_headERKS5_(ptr noundef nonnull align 8 dereferenceable(8) %0) #1 comdat align 2 {
  %2 = alloca ptr, align 8
  store ptr %0, ptr %2, align 8
  %3 = load ptr, ptr %2, align 8
  %4 = call noundef nonnull align 8 dereferenceable(8) ptr @_ZNSt10_Head_baseILm0EPN4llvm14MCObjectWriterELb0EE7_M_headERKS3_(ptr noundef nonnull align 8 dereferenceable(8) %3) #2
  ret ptr %4
}

; Function Attrs: mustprogress nounwind uwtable
define linkonce_odr noundef nonnull align 8 dereferenceable(8) ptr @_ZSt12__get_helperILm0EPN4llvm14MCObjectWriterEJSt14default_deleteIS1_EEERKT0_RKSt11_Tuple_implIXT_EJS5_DpT1_EE(ptr noundef nonnull align 8 dereferenceable(8) %0) #1 comdat {
  %2 = alloca ptr, align 8
  store ptr %0, ptr %2, align 8
  %3 = load ptr, ptr %2, align 8
  %4 = call noundef nonnull align 8 dereferenceable(8) ptr @_ZNSt11_Tuple_implILm0EJPN4llvm14MCObjectWriterESt14default_deleteIS1_EEE7_M_headERKS5_(ptr noundef nonnull align 8 dereferenceable(8) %3) #2
  ret ptr %4
}

; Function Attrs: mustprogress nounwind uwtable
define linkonce_odr noundef nonnull align 8 dereferenceable(8) ptr @_ZSt3getILm0EJPN4llvm14MCObjectWriterESt14default_deleteIS1_EEERKNSt13tuple_elementIXT_ESt5tupleIJDpT0_EEE4typeERKS9_(ptr noundef nonnull align 8 dereferenceable(8) %0) #1 comdat {
  %2 = alloca ptr, align 8
  store ptr %0, ptr %2, align 8
  %3 = load ptr, ptr %2, align 8
  %4 = call noundef nonnull align 8 dereferenceable(8) ptr @_ZSt12__get_helperILm0EPN4llvm14MCObjectWriterEJSt14default_deleteIS1_EEERKT0_RKSt11_Tuple_implIXT_EJS5_DpT1_EE(ptr noundef nonnull align 8 dereferenceable(8) %3) #2
  ret ptr %4
}

; Function Attrs: mustprogress nounwind uwtable
define linkonce_odr hidden noundef ptr @_ZNKSt15__uniq_ptr_implIN4llvm14MCObjectWriterESt14default_deleteIS1_EE6_M_ptrEv(ptr noundef nonnull align 8 dereferenceable(8) %0) #1 comdat align 2 {
  %2 = alloca ptr, align 8
  store ptr %0, ptr %2, align 8
  %3 = load ptr, ptr %2, align 8
  %4 = getelementptr inbounds nuw %"class.std::__uniq_ptr_impl.27", ptr %3, i32 0, i32 0
  %5 = call noundef nonnull align 8 dereferenceable(8) ptr @_ZSt3getILm0EJPN4llvm14MCObjectWriterESt14default_deleteIS1_EEERKNSt13tuple_elementIXT_ESt5tupleIJDpT0_EEE4typeERKS9_(ptr noundef nonnull align 8 dereferenceable(8) %4) #2
  %6 = load ptr, ptr %5, align 8
  ret ptr %6
}

; Function Attrs: mustprogress nounwind uwtable
define linkonce_odr hidden noundef ptr @_ZNKSt10unique_ptrIN4llvm14MCObjectWriterESt14default_deleteIS1_EE3getEv(ptr noundef nonnull align 8 dereferenceable(8) %0) #1 comdat align 2 {
  %2 = alloca ptr, align 8
  store ptr %0, ptr %2, align 8
  %3 = load ptr, ptr %2, align 8
  %4 = getelementptr inbounds nuw %"class.std::unique_ptr.25", ptr %3, i32 0, i32 0
  %5 = call noundef ptr @_ZNKSt15__uniq_ptr_implIN4llvm14MCObjectWriterESt14default_deleteIS1_EE6_M_ptrEv(ptr noundef nonnull align 8 dereferenceable(8) %4) #2
  ret ptr %5
}

; Function Attrs: mustprogress nounwind uwtable
define linkonce_odr hidden noundef nonnull align 8 dereferenceable(104) ptr @_ZNKSt10unique_ptrIN4llvm14MCObjectWriterESt14default_deleteIS1_EEdeEv(ptr noundef nonnull align 8 dereferenceable(8) %0) #1 comdat align 2 {
  %2 = alloca ptr, align 8
  store ptr %0, ptr %2, align 8
  %3 = load ptr, ptr %2, align 8
  br label %4

4:                                                ; preds = %1
  br label %5

5:                                                ; preds = %4
  %6 = call noundef ptr @_ZNKSt10unique_ptrIN4llvm14MCObjectWriterESt14default_deleteIS1_EE3getEv(ptr noundef nonnull align 8 dereferenceable(8) %3) #2
  ret ptr %6
}

; Function Attrs: mustprogress nounwind uwtable
define linkonce_odr hidden void @_ZN4llvm7MCFixupC2Ev(ptr noundef nonnull align 8 dereferenceable(24) %0) unnamed_addr #1 comdat align 2 {
  %2 = alloca ptr, align 8
  store ptr %0, ptr %2, align 8
  %3 = load ptr, ptr %2, align 8
  %4 = getelementptr inbounds nuw %"class.llvm::MCFixup", ptr %3, i32 0, i32 0
  store ptr null, ptr %4, align 8
  %5 = getelementptr inbounds nuw %"class.llvm::MCFixup", ptr %3, i32 0, i32 1
  store i32 0, ptr %5, align 8
  %6 = getelementptr inbounds nuw %"class.llvm::MCFixup", ptr %3, i32 0, i32 2
  store i32 0, ptr %6, align 4
  %7 = getelementptr inbounds nuw %"class.llvm::MCFixup", ptr %3, i32 0, i32 3
  call void @_ZN4llvm5SMLocC2Ev(ptr noundef nonnull align 8 dereferenceable(8) %7) #2
  ret void
}

; Function Attrs: mustprogress nounwind uwtable
define linkonce_odr hidden void @_ZN4llvm7MCValueC2Ev(ptr noundef nonnull align 8 dereferenceable(28) %0) unnamed_addr #1 comdat align 2 {
  %2 = alloca ptr, align 8
  store ptr %0, ptr %2, align 8
  %3 = load ptr, ptr %2, align 8
  %4 = getelementptr inbounds nuw %"class.llvm::MCValue", ptr %3, i32 0, i32 0
  store ptr null, ptr %4, align 8
  %5 = getelementptr inbounds nuw %"class.llvm::MCValue", ptr %3, i32 0, i32 1
  store ptr null, ptr %5, align 8
  %6 = getelementptr inbounds nuw %"class.llvm::MCValue", ptr %3, i32 0, i32 2
  store i64 0, ptr %6, align 8
  %7 = getelementptr inbounds nuw %"class.llvm::MCValue", ptr %3, i32 0, i32 3
  store i32 0, ptr %7, align 8
  ret void
}

; Function Attrs: mustprogress nounwind uwtable
define linkonce_odr hidden noundef nonnull align 8 dereferenceable(104) ptr @_ZNK4llvm11MCAssembler9getWriterEv(ptr noundef nonnull align 8 dereferenceable(372) %0) #1 comdat align 2 {
  %2 = alloca ptr, align 8
  store ptr %0, ptr %2, align 8
  %3 = load ptr, ptr %2, align 8
  %4 = getelementptr inbounds nuw %"class.llvm::MCAssembler", ptr %3, i32 0, i32 3
  %5 = call noundef nonnull align 8 dereferenceable(104) ptr @_ZNKSt10unique_ptrIN4llvm14MCObjectWriterESt14default_deleteIS1_EEdeEv(ptr noundef nonnull align 8 dereferenceable(8) %4) #2
  ret ptr %5
}

; Function Attrs: mustprogress nounwind uwtable
define linkonce_odr hidden void @_ZN4llvm7MCFixup6createEjPKNS_6MCExprENS_11MCFixupKindENS_5SMLocE(ptr dead_on_unwind noalias writable sret(%"class.llvm::MCFixup") align 8 %0, i32 noundef %1, ptr noundef %2, i32 noundef %3, ptr %4) #1 comdat align 2 {
  %6 = alloca %"class.llvm::SMLoc", align 8
  %7 = alloca i32, align 4
  %8 = alloca ptr, align 8
  %9 = alloca i32, align 4
  %10 = getelementptr inbounds nuw %"class.llvm::SMLoc", ptr %6, i32 0, i32 0
  store ptr %4, ptr %10, align 8
  store i32 %1, ptr %7, align 4
  store ptr %2, ptr %8, align 8
  store i32 %3, ptr %9, align 4
  call void @_ZN4llvm7MCFixupC2Ev(ptr noundef nonnull align 8 dereferenceable(24) %0) #2
  %11 = load ptr, ptr %8, align 8
  %12 = getelementptr inbounds nuw %"class.llvm::MCFixup", ptr %0, i32 0, i32 0
  store ptr %11, ptr %12, align 8
  %13 = load i32, ptr %7, align 4
  %14 = getelementptr inbounds nuw %"class.llvm::MCFixup", ptr %0, i32 0, i32 1
  store i32 %13, ptr %14, align 8
  %15 = load i32, ptr %9, align 4
  %16 = getelementptr inbounds nuw %"class.llvm::MCFixup", ptr %0, i32 0, i32 2
  store i32 %15, ptr %16, align 4
  %17 = getelementptr inbounds nuw %"class.llvm::MCFixup", ptr %0, i32 0, i32 3
  call void @llvm.memcpy.p0.p0.i64(ptr align 8 %17, ptr align 8 %6, i64 8, i1 false)
  ret void
}

; Function Attrs: mustprogress nounwind uwtable
define linkonce_odr hidden void @_ZN4llvm5SMLocC2Ev(ptr noundef nonnull align 8 dereferenceable(8) %0) unnamed_addr #1 comdat align 2 {
  %2 = alloca ptr, align 8
  store ptr %0, ptr %2, align 8
  %3 = load ptr, ptr %2, align 8
  %4 = getelementptr inbounds nuw %"class.llvm::SMLoc", ptr %3, i32 0, i32 0
  store ptr null, ptr %4, align 8
  ret void
}

; Function Attrs: mustprogress nounwind uwtable
define linkonce_odr hidden noundef i32 @_ZNK4llvm7MCFixup9getOffsetEv(ptr noundef nonnull align 8 dereferenceable(24) %0) #1 comdat align 2 {
  %2 = alloca ptr, align 8
  store ptr %0, ptr %2, align 8
  %3 = load ptr, ptr %2, align 8
  %4 = getelementptr inbounds nuw %"class.llvm::MCFixup", ptr %3, i32 0, i32 1
  %5 = load i32, ptr %4, align 8
  ret i32 %5
}

; Function Attrs: mustprogress nounwind uwtable
define linkonce_odr hidden noundef ptr @_ZNK4llvm7MCValue7getSymBEv(ptr noundef nonnull align 8 dereferenceable(28) %0) #1 comdat align 2 {
  %2 = alloca ptr, align 8
  store ptr %0, ptr %2, align 8
  %3 = load ptr, ptr %2, align 8
  %4 = getelementptr inbounds nuw %"class.llvm::MCValue", ptr %3, i32 0, i32 1
  %5 = load ptr, ptr %4, align 8
  ret ptr %5
}

; Function Attrs: mustprogress nounwind uwtable
define linkonce_odr hidden void @_ZN4llvm7MCValue3getEPKNS_15MCSymbolRefExprES3_lj(ptr dead_on_unwind noalias writable sret(%"class.llvm::MCValue") align 8 %0, ptr noundef %1, ptr noundef %2, i64 noundef %3, i32 noundef %4) #1 comdat align 2 {
  %6 = alloca ptr, align 8
  %7 = alloca ptr, align 8
  %8 = alloca i64, align 8
  %9 = alloca i32, align 4
  store ptr %1, ptr %6, align 8
  store ptr %2, ptr %7, align 8
  store i64 %3, ptr %8, align 8
  store i32 %4, ptr %9, align 4
  call void @_ZN4llvm7MCValueC2Ev(ptr noundef nonnull align 8 dereferenceable(28) %0) #2
  %10 = load i64, ptr %8, align 8
  %11 = getelementptr inbounds nuw %"class.llvm::MCValue", ptr %0, i32 0, i32 2
  store i64 %10, ptr %11, align 8
  %12 = load ptr, ptr %6, align 8
  %13 = getelementptr inbounds nuw %"class.llvm::MCValue", ptr %0, i32 0, i32 0
  store ptr %12, ptr %13, align 8
  %14 = load ptr, ptr %7, align 8
  %15 = getelementptr inbounds nuw %"class.llvm::MCValue", ptr %0, i32 0, i32 1
  store ptr %14, ptr %15, align 8
  %16 = load i32, ptr %9, align 4
  %17 = getelementptr inbounds nuw %"class.llvm::MCValue", ptr %0, i32 0, i32 3
  store i32 %16, ptr %17, align 8
  ret void
}

; Function Attrs: mustprogress nounwind uwtable
define linkonce_odr hidden noundef i64 @_ZNK4llvm7MCValue11getConstantEv(ptr noundef nonnull align 8 dereferenceable(28) %0) #1 comdat align 2 {
  %2 = alloca ptr, align 8
  store ptr %0, ptr %2, align 8
  %3 = load ptr, ptr %2, align 8
  %4 = getelementptr inbounds nuw %"class.llvm::MCValue", ptr %3, i32 0, i32 2
  %5 = load i64, ptr %4, align 8
  ret i64 %5
}

; Function Attrs: mustprogress nounwind uwtable
define linkonce_odr hidden noundef ptr @_ZNK4llvm7MCValue7getSymAEv(ptr noundef nonnull align 8 dereferenceable(28) %0) #1 comdat align 2 {
  %2 = alloca ptr, align 8
  store ptr %0, ptr %2, align 8
  %3 = load ptr, ptr %2, align 8
  %4 = getelementptr inbounds nuw %"class.llvm::MCValue", ptr %3, i32 0, i32 0
  %5 = load ptr, ptr %4, align 8
  ret ptr %5
}

; Function Attrs: mustprogress nounwind uwtable
define linkonce_odr hidden noundef i32 @_ZNK4llvm7MCFixup7getKindEv(ptr noundef nonnull align 8 dereferenceable(24) %0) #1 comdat align 2 {
  %2 = alloca ptr, align 8
  store ptr %0, ptr %2, align 8
  %3 = load ptr, ptr %2, align 8
  %4 = getelementptr inbounds nuw %"class.llvm::MCFixup", ptr %3, i32 0, i32 2
  %5 = load i32, ptr %4, align 4
  ret i32 %5
}

; Function Attrs: mustprogress nounwind uwtable
define dso_local noundef zeroext i1 @_ZNK4llvm15RISCVAsmBackend23handleAddSubRelocationsERKNS_11MCAssemblerERKNS_10MCFragmentERKNS_7MCFixupERKNS_7MCValueERm(ptr noundef nonnull align 8 dereferenceable(40) %0, ptr noundef nonnull align 8 dereferenceable(372) %1, ptr noundef nonnull align 8 dereferenceable(30) %2, ptr noundef nonnull align 8 dereferenceable(24) %3, ptr noundef nonnull align 8 dereferenceable(28) %4, ptr noundef nonnull align 8 dereferenceable(8) %5) unnamed_addr #1 align 2 {
  %7 = alloca ptr, align 8
  %8 = alloca ptr, align 8
  %9 = alloca ptr, align 8
  %10 = alloca ptr, align 8
  %11 = alloca ptr, align 8
  %12 = alloca ptr, align 8
  %13 = alloca i64, align 8
  %14 = alloca i64, align 8
  %15 = alloca i32, align 4
  %16 = alloca i32, align 4
  %17 = alloca %"class.llvm::MCValue", align 8
  %18 = alloca %"class.llvm::MCValue", align 8
  %19 = alloca %"class.llvm::MCFixup", align 8
  %20 = alloca %"class.llvm::SMLoc", align 8
  %21 = alloca %"class.llvm::MCFixup", align 8
  %22 = alloca %"class.llvm::SMLoc", align 8
  %23 = alloca ptr, align 8
  %24 = alloca %"class.llvm::MCValue", align 8
  %25 = alloca %"class.llvm::MCValue", align 8
  store ptr %0, ptr %7, align 8
  store ptr %1, ptr %8, align 8
  store ptr %2, ptr %9, align 8
  store ptr %3, ptr %10, align 8
  store ptr %4, ptr %11, align 8
  store ptr %5, ptr %12, align 8
  store i32 0, ptr %15, align 4
  store i32 0, ptr %16, align 4
  %26 = load ptr, ptr %10, align 8
  %27 = call noundef i32 @_ZNK4llvm7MCFixup7getKindEv(ptr noundef nonnull align 8 dereferenceable(24) %26)
  switch i32 %27, label %33 [
    i32 1, label %28
    i32 2, label %29
    i32 3, label %30
    i32 4, label %31
    i32 5, label %32
  ]

28:                                               ; preds = %6
  store i32 33, ptr %15, align 4
  store i32 37, ptr %16, align 4
  br label %34

29:                                               ; preds = %6
  store i32 34, ptr %15, align 4
  store i32 38, ptr %16, align 4
  br label %34

30:                                               ; preds = %6
  store i32 35, ptr %15, align 4
  store i32 39, ptr %16, align 4
  br label %34

31:                                               ; preds = %6
  store i32 36, ptr %15, align 4
  store i32 40, ptr %16, align 4
  br label %34

32:                                               ; preds = %6
  store i32 60, ptr %15, align 4
  store i32 61, ptr %16, align 4
  br label %34

33:                                               ; preds = %6
  unreachable

34:                                               ; preds = %32, %31, %30, %29, %28
  %35 = load ptr, ptr %11, align 8
  %36 = call noundef ptr @_ZNK4llvm7MCValue7getSymAEv(ptr noundef nonnull align 8 dereferenceable(28) %35)
  %37 = load ptr, ptr %11, align 8
  %38 = call noundef i64 @_ZNK4llvm7MCValue11getConstantEv(ptr noundef nonnull align 8 dereferenceable(28) %37)
  call void @_ZN4llvm7MCValue3getEPKNS_15MCSymbolRefExprES3_lj(ptr dead_on_unwind writable sret(%"class.llvm::MCValue") align 8 %17, ptr noundef %36, ptr noundef null, i64 noundef %38, i32 noundef 0)
  %39 = load ptr, ptr %11, align 8
  %40 = call noundef ptr @_ZNK4llvm7MCValue7getSymBEv(ptr noundef nonnull align 8 dereferenceable(28) %39)
  call void @_ZN4llvm7MCValue3getEPKNS_15MCSymbolRefExprES3_lj(ptr dead_on_unwind writable sret(%"class.llvm::MCValue") align 8 %18, ptr noundef %40, ptr noundef null, i64 noundef 0, i32 noundef 0)
  %41 = load ptr, ptr %10, align 8
  %42 = call noundef i32 @_ZNK4llvm7MCFixup9getOffsetEv(ptr noundef nonnull align 8 dereferenceable(24) %41)
  %43 = load i32, ptr %15, align 4
  %44 = add i32 256, %43
  call void @llvm.memset.p0.i64(ptr align 8 %20, i8 0, i64 8, i1 false)
  call void @_ZN4llvm5SMLocC2Ev(ptr noundef nonnull align 8 dereferenceable(8) %20) #2
  %45 = getelementptr inbounds nuw %"class.llvm::SMLoc", ptr %20, i32 0, i32 0
  %46 = load ptr, ptr %45, align 8
  call void @_ZN4llvm7MCFixup6createEjPKNS_6MCExprENS_11MCFixupKindENS_5SMLocE(ptr dead_on_unwind writable sret(%"class.llvm::MCFixup") align 8 %19, i32 noundef %42, ptr noundef null, i32 noundef %44, ptr %46)
  %47 = load ptr, ptr %10, align 8
  %48 = call noundef i32 @_ZNK4llvm7MCFixup9getOffsetEv(ptr noundef nonnull align 8 dereferenceable(24) %47)
  %49 = load i32, ptr %16, align 4
  %50 = add i32 256, %49
  call void @llvm.memset.p0.i64(ptr align 8 %22, i8 0, i64 8, i1 false)
  call void @_ZN4llvm5SMLocC2Ev(ptr noundef nonnull align 8 dereferenceable(8) %22) #2
  %51 = getelementptr inbounds nuw %"class.llvm::SMLoc", ptr %22, i32 0, i32 0
  %52 = load ptr, ptr %51, align 8
  call void @_ZN4llvm7MCFixup6createEjPKNS_6MCExprENS_11MCFixupKindENS_5SMLocE(ptr dead_on_unwind writable sret(%"class.llvm::MCFixup") align 8 %21, i32 noundef %48, ptr noundef null, i32 noundef %50, ptr %52)
  %53 = load ptr, ptr %8, align 8
  store ptr %53, ptr %23, align 8
  %54 = load ptr, ptr %8, align 8
  %55 = call noundef nonnull align 8 dereferenceable(104) ptr @_ZNK4llvm11MCAssembler9getWriterEv(ptr noundef nonnull align 8 dereferenceable(372) %54)
  %56 = load ptr, ptr %23, align 8
  %57 = load ptr, ptr %9, align 8
  call void @llvm.memcpy.p0.p0.i64(ptr align 8 %24, ptr align 8 %17, i64 32, i1 false)
  %58 = load ptr, ptr %55, align 8
  %59 = getelementptr inbounds ptr, ptr %58, i64 4
  %60 = load ptr, ptr %59, align 8
  call void %60(ptr noundef nonnull align 8 dereferenceable(104) %55, ptr noundef nonnull align 8 dereferenceable(372) %56, ptr noundef %57, ptr noundef nonnull align 8 dereferenceable(24) %19, ptr noundef byval(%"class.llvm::MCValue") align 8 %24, ptr noundef nonnull align 8 dereferenceable(8) %13)
  %61 = load ptr, ptr %8, align 8
  %62 = call noundef nonnull align 8 dereferenceable(104) ptr @_ZNK4llvm11MCAssembler9getWriterEv(ptr noundef nonnull align 8 dereferenceable(372) %61)
  %63 = load ptr, ptr %23, align 8
  %64 = load ptr, ptr %9, align 8
  call void @llvm.memcpy.p0.p0.i64(ptr align 8 %25, ptr align 8 %18, i64 32, i1 false)
  %65 = load ptr, ptr %62, align 8
  %66 = getelementptr inbounds ptr, ptr %65, i64 4
  %67 = load ptr, ptr %66, align 8
  call void %67(ptr noundef nonnull align 8 dereferenceable(104) %62, ptr noundef nonnull align 8 dereferenceable(372) %63, ptr noundef %64, ptr noundef nonnull align 8 dereferenceable(24) %21, ptr noundef byval(%"class.llvm::MCValue") align 8 %25, ptr noundef nonnull align 8 dereferenceable(8) %14)
  %68 = load i64, ptr %13, align 8
  %69 = load i64, ptr %14, align 8
  %70 = sub i64 %68, %69
  %71 = load ptr, ptr %12, align 8
  store i64 %70, ptr %71, align 8
  ret i1 true
}