; Function Attrs: mustprogress nounwind uwtable
define dso_local noundef zeroext i1 @_ZNK4llvm15RISCVAsmBackend23handleAddSubRelocationsERKNS_11MCAssemblerERKNS_10MCFragmentERKNS_7MCFixupERKNS_7MCValueERm(ptr nocapture nonnull readnone align 8 %0, ptr noundef nonnull align 8 dereferenceable(372) %1, ptr noundef nonnull align 8 dereferenceable(30) %2, ptr nocapture noundef nonnull readonly align 8 dereferenceable(24) %3, ptr nocapture noundef nonnull readonly align 8 dereferenceable(28) %4, ptr nocapture noundef nonnull writeonly align 8 dereferenceable(8) %5) unnamed_addr #0 align 2 {
switch.lookup:
  %6 = alloca i64, align 8
  %7 = alloca i64, align 8
  %8 = alloca %"class.llvm::MCFixup", align 8
  %9 = alloca %"class.llvm::MCFixup", align 8
  %10 = alloca %"class.llvm::MCValue", align 8
  %11 = alloca %"class.llvm::MCValue", align 8
  %12 = getelementptr inbounds nuw i8, ptr %3, i64 12
  %13 = load i32, ptr %12, align 4
  %switch.tableidx = add nsw i32 %13, -1
  %14 = sext i32 %switch.tableidx to i64
  %switch.gep = getelementptr inbounds [5 x i32], ptr @switch.table._ZNK4llvm15RISCVAsmBackend23handleAddSubRelocationsERKNS_11MCAssemblerERKNS_10MCFragmentERKNS_7MCFixupERKNS_7MCValueERm, i64 0, i64 %14
  %switch.load = load i32, ptr %switch.gep, align 4
  %15 = sext i32 %switch.tableidx to i64
  %switch.gep23 = getelementptr inbounds [5 x i32], ptr @switch.table._ZNK4llvm15RISCVAsmBackend23handleAddSubRelocationsERKNS_11MCAssemblerERKNS_10MCFragmentERKNS_7MCFixupERKNS_7MCValueERm.2, i64 0, i64 %15
  %switch.load24 = load i32, ptr %switch.gep23, align 4
  %16 = load ptr, ptr %4, align 8
  %17 = getelementptr inbounds nuw i8, ptr %4, i64 16
  %18 = load i64, ptr %17, align 8
  %19 = getelementptr inbounds nuw i8, ptr %4, i64 8
  %20 = load ptr, ptr %19, align 8
  %21 = getelementptr inbounds nuw i8, ptr %3, i64 8
  %22 = load i32, ptr %21, align 8
  store ptr null, ptr %8, align 8, !alias.scope !42
  %23 = getelementptr inbounds nuw i8, ptr %8, i64 8
  store i32 %22, ptr %23, align 8, !alias.scope !42
  %24 = getelementptr inbounds nuw i8, ptr %8, i64 12
  store i32 %switch.load24, ptr %24, align 4, !alias.scope !42
  %25 = getelementptr inbounds nuw i8, ptr %8, i64 16
  store ptr null, ptr %25, align 8, !alias.scope !42
  store ptr null, ptr %9, align 8, !alias.scope !45
  %26 = getelementptr inbounds nuw i8, ptr %9, i64 8
  store i32 %22, ptr %26, align 8, !alias.scope !45
  %27 = getelementptr inbounds nuw i8, ptr %9, i64 12
  store i32 %switch.load, ptr %27, align 4, !alias.scope !45
  %28 = getelementptr inbounds nuw i8, ptr %9, i64 16
  store ptr null, ptr %28, align 8, !alias.scope !45
  %29 = getelementptr inbounds nuw i8, ptr %1, i64 24
  %30 = load ptr, ptr %29, align 8
  store ptr %16, ptr %10, align 8
  %.sroa.219.0..sroa_idx = getelementptr inbounds i8, ptr %10, i64 8
  store ptr null, ptr %.sroa.219.0..sroa_idx, align 8
  %.sroa.320.0..sroa_idx = getelementptr inbounds i8, ptr %10, i64 16
  store i64 %18, ptr %.sroa.320.0..sroa_idx, align 8
  %.sroa.421.0..sroa_idx = getelementptr inbounds i8, ptr %10, i64 24
  store i32 0, ptr %.sroa.421.0..sroa_idx, align 8
  %31 = load ptr, ptr %30, align 8
  %32 = getelementptr inbounds i8, ptr %31, i64 32
  %33 = load ptr, ptr %32, align 8
  call void %33(ptr noundef nonnull align 8 dereferenceable(104) %30, ptr noundef nonnull align 8 dereferenceable(372) %1, ptr noundef nonnull %2, ptr noundef nonnull align 8 dereferenceable(24) %8, ptr noundef nonnull byval(%"class.llvm::MCValue") align 8 %10, ptr noundef nonnull align 8 dereferenceable(8) %6) #18
  %34 = load ptr, ptr %29, align 8
  store ptr %20, ptr %11, align 8
  %.sroa.2.0..sroa_idx = getelementptr inbounds i8, ptr %11, i64 8
  call void @llvm.memset.p0.i64(ptr noundef nonnull align 8 dereferenceable(20) %.sroa.2.0..sroa_idx, i8 0, i64 20, i1 false)
  %35 = load ptr, ptr %34, align 8
  %36 = getelementptr inbounds i8, ptr %35, i64 32
  %37 = load ptr, ptr %36, align 8
  call void %37(ptr noundef nonnull align 8 dereferenceable(104) %34, ptr noundef nonnull align 8 dereferenceable(372) %1, ptr noundef nonnull %2, ptr noundef nonnull align 8 dereferenceable(24) %9, ptr noundef nonnull byval(%"class.llvm::MCValue") align 8 %11, ptr noundef nonnull align 8 dereferenceable(8) %7) #18
  %38 = load i64, ptr %6, align 8
  %39 = load i64, ptr %7, align 8
  %40 = sub i64 %38, %39
  store i64 %40, ptr %5, align 8
  ret i1 true
}